target datalayout = "e-m:e-p270:32:32-p271:32:32-p272:64:64-i64:64-i128:128-f80:128-n8:16:32:64-S128"
target triple = "x86_64-pc-linux-gnu"

%struct.SDL_AtomicInt = type { i32 }
%struct.SDL_AudioStream = type { ptr, i32, ptr, ptr, ptr, ptr, %struct.SDL_AudioSpec, %struct.SDL_AudioSpec, ptr, ptr, float, float, ptr, %struct.SDL_AudioSpec, ptr, [8 x i32], i64, ptr, i64, i8, ptr, ptr, ptr, ptr, ptr }
%struct.SDL_AudioSpec = type { i32, i32, i32 }
%struct.SDL_LogicalAudioDevice = type { i32, ptr, %struct.SDL_AtomicInt, float, ptr, i8, i8, ptr, ptr, ptr, ptr, ptr, ptr, ptr }

@.str = private unnamed_addr constant [26 x i8] c"Parameter '%s' is invalid\00", align 1
@.str.24 = private unnamed_addr constant [7 x i8] c"stream\00", align 1
@.str.25 = private unnamed_addr constant [42 x i8] c"Audio stream not bound to an audio device\00", align 1

; Function Attrs: nounwind uwtable
define hidden zeroext i1 @SDL_AudioDevicePaused_REAL(i32 noundef %0) #0 {
  %2 = alloca i32, align 4
  %3 = alloca ptr, align 8
  %4 = alloca ptr, align 8
  %5 = alloca i8, align 1
  store i32 %0, ptr %2, align 4
  call void @llvm.lifetime.start.p0(i64 8, ptr %3) #6
  store ptr null, ptr %3, align 8
  call void @llvm.lifetime.start.p0(i64 8, ptr %4) #6
  %6 = load i32, ptr %2, align 4
  %7 = call ptr @ObtainLogicalAudioDevice(i32 noundef %6, ptr noundef %3)
  store ptr %7, ptr %4, align 8
  call void @llvm.lifetime.start.p0(i64 1, ptr %5) #6
  store i8 0, ptr %5, align 1
  %8 = load ptr, ptr %4, align 8
  %9 = icmp ne ptr %8, null
  br i1 %9, label %10, label %16

10:                                               ; preds = %1
  %11 = load ptr, ptr %4, align 8
  %12 = getelementptr inbounds nuw %struct.SDL_LogicalAudioDevice, ptr %11, i32 0, i32 2
  %13 = call i32 @SDL_GetAtomicInt_REAL(ptr noundef %12)
  %14 = icmp ne i32 %13, 0
  br i1 %14, label %15, label %16

15:                                               ; preds = %10
  store i8 1, ptr %5, align 1
  br label %16

16:                                               ; preds = %15, %10, %1
  %17 = load ptr, ptr %3, align 8
  call void @ReleaseAudioDevice(ptr noundef %17)
  %18 = load i8, ptr %5, align 1, !range !5, !noundef !6
  %19 = trunc i8 %18 to i1
  call void @llvm.lifetime.end.p0(i64 1, ptr %5) #6
  call void @llvm.lifetime.end.p0(i64 8, ptr %4) #6
  call void @llvm.lifetime.end.p0(i64 8, ptr %3) #6
  ret i1 %19
}

; Function Attrs: nounwind uwtable
define hidden i32 @SDL_GetAudioStreamDevice_REAL(ptr noundef %0) #0 {
  %2 = alloca i32, align 4
  %3 = alloca ptr, align 8
  %4 = alloca i32, align 4
  %5 = alloca i32, align 4
  store ptr %0, ptr %3, align 8
  call void @llvm.lifetime.start.p0(i64 4, ptr %4) #6
  store i32 0, ptr %4, align 4
  %6 = load ptr, ptr %3, align 8
  %7 = icmp ne ptr %6, null
  br i1 %7, label %10, label %8

8:                                                ; preds = %1
  %9 = call zeroext i1 (ptr, ...) @SDL_SetError_REAL(ptr noundef @.str, ptr noundef @.str.24)
  store i32 0, ptr %2, align 4
  store i32 1, ptr %5, align 4
  br label %31

10:                                               ; preds = %1
  %11 = load ptr, ptr %3, align 8
  %12 = getelementptr inbounds nuw %struct.SDL_AudioStream, ptr %11, i32 0, i32 0
  %13 = load ptr, ptr %12, align 8
  call void @SDL_LockMutex_REAL(ptr noundef %13)
  %14 = load ptr, ptr %3, align 8
  %15 = getelementptr inbounds nuw %struct.SDL_AudioStream, ptr %14, i32 0, i32 20
  %16 = load ptr, ptr %15, align 8
  %17 = icmp ne ptr %16, null
  br i1 %17, label %18, label %24

18:                                               ; preds = %10
  %19 = load ptr, ptr %3, align 8
  %20 = getelementptr inbounds nuw %struct.SDL_AudioStream, ptr %19, i32 0, i32 20
  %21 = load ptr, ptr %20, align 8
  %22 = getelementptr inbounds nuw %struct.SDL_LogicalAudioDevice, ptr %21, i32 0, i32 0
  %23 = load i32, ptr %22, align 8
  store i32 %23, ptr %4, align 4
  br label %26

24:                                               ; preds = %10
  %25 = call zeroext i1 (ptr, ...) @SDL_SetError_REAL(ptr noundef @.str.25)
  br label %26

26:                                               ; preds = %24, %18
  %27 = load ptr, ptr %3, align 8
  %28 = getelementptr inbounds nuw %struct.SDL_AudioStream, ptr %27, i32 0, i32 0
  %29 = load ptr, ptr %28, align 8
  call void @SDL_UnlockMutex_REAL(ptr noundef %29)
  %30 = load i32, ptr %4, align 4
  store i32 %30, ptr %2, align 4
  store i32 1, ptr %5, align 4
  br label %31

31:                                               ; preds = %26, %8
  call void @llvm.lifetime.end.p0(i64 4, ptr %4) #6
  %32 = load i32, ptr %2, align 4
  ret i32 %32
}

; Function Attrs: nounwind uwtable
define hidden zeroext i1 @SDL_AudioStreamDevicePaused_REAL(ptr noundef %0) #0 {
  %2 = alloca i1, align 1
  %3 = alloca ptr, align 8
  %4 = alloca i32, align 4
  %5 = alloca i32, align 4
  store ptr %0, ptr %3, align 8
  call void @llvm.lifetime.start.p0(i64 4, ptr %4) #6
  %6 = load ptr, ptr %3, align 8
  %7 = call i32 @SDL_GetAudioStreamDevice_REAL(ptr noundef %6)
  store i32 %7, ptr %4, align 4
  %8 = load i32, ptr %4, align 4
  %9 = icmp ne i32 %8, 0
  br i1 %9, label %11, label %10

10:                                               ; preds = %1
  store i1 false, ptr %2, align 1
  store i32 1, ptr %5, align 4
  br label %14

11:                                               ; preds = %1
  %12 = load i32, ptr %4, align 4
  %13 = call zeroext i1 @SDL_AudioDevicePaused_REAL(i32 noundef %12)
  store i1 %13, ptr %2, align 1
  store i32 1, ptr %5, align 4
  br label %14

14:                                               ; preds = %11, %10
  call void @llvm.lifetime.end.p0(i64 4, ptr %4) #6
  %15 = load i1, ptr %2, align 1
  ret i1 %15
}