; Function Attrs: nounwind uwtable
define hidden zeroext i1 @SDL_AudioStreamDevicePaused_REAL(ptr noundef readonly captures(address_is_null) %0) local_unnamed_addr #0 {
  %2 = alloca ptr, align 8
  %.not.i = icmp eq ptr %0, null
  br i1 %.not.i, label %SDL_GetAudioStreamDevice_REAL.exit.thread, label %4

SDL_GetAudioStreamDevice_REAL.exit.thread:        ; preds = %1
  %3 = tail call zeroext i1 (ptr, ...) @SDL_SetError_REAL(ptr noundef nonnull @.str, ptr noundef nonnull @.str.24) #14
  br label %18

4:                                                ; preds = %1
  %5 = load ptr, ptr %0, align 8
  tail call void @SDL_LockMutex_REAL(ptr noundef %5) #14
  %6 = getelementptr inbounds nuw i8, ptr %0, i64 192
  %7 = load ptr, ptr %6, align 8
  %.not9.i = icmp eq ptr %7, null
  br i1 %.not9.i, label %SDL_GetAudioStreamDevice_REAL.exit.thread8, label %SDL_GetAudioStreamDevice_REAL.exit

SDL_GetAudioStreamDevice_REAL.exit.thread8:       ; preds = %4
  %8 = tail call zeroext i1 (ptr, ...) @SDL_SetError_REAL(ptr noundef nonnull @.str.25) #14
  %9 = load ptr, ptr %0, align 8
  tail call void @SDL_UnlockMutex_REAL(ptr noundef %9) #14
  br label %18

SDL_GetAudioStreamDevice_REAL.exit:               ; preds = %4
  %10 = load i32, ptr %7, align 8
  %11 = load ptr, ptr %0, align 8
  tail call void @SDL_UnlockMutex_REAL(ptr noundef %11) #14
  %.not = icmp eq i32 %10, 0
  br i1 %.not, label %18, label %12

12:                                               ; preds = %SDL_GetAudioStreamDevice_REAL.exit
  call void @llvm.lifetime.start.p0(i64 8, ptr nonnull %2) #14
  store ptr null, ptr %2, align 8
  %13 = call fastcc ptr @ObtainLogicalAudioDevice(i32 noundef %10, ptr noundef %2)
  %.not.i4 = icmp eq ptr %13, null
  br i1 %.not.i4, label %SDL_AudioDevicePaused_REAL.exit, label %14

14:                                               ; preds = %12
  %15 = getelementptr inbounds nuw i8, ptr %13, i64 16
  %16 = tail call i32 @SDL_GetAtomicInt_REAL(ptr noundef nonnull %15) #14
  %.not4.i = icmp ne i32 %16, 0
  br label %SDL_AudioDevicePaused_REAL.exit

SDL_AudioDevicePaused_REAL.exit:                  ; preds = %12, %14
  %.0.i5 = phi i1 [ false, %12 ], [ %.not4.i, %14 ]
  %17 = load ptr, ptr %2, align 8
  tail call fastcc void @ReleaseAudioDevice(ptr noundef %17)
  call void @llvm.lifetime.end.p0(i64 8, ptr nonnull %2) #14
  br label %18

18:                                               ; preds = %SDL_GetAudioStreamDevice_REAL.exit.thread8, %SDL_GetAudioStreamDevice_REAL.exit.thread, %SDL_GetAudioStreamDevice_REAL.exit, %SDL_AudioDevicePaused_REAL.exit
  %.0 = phi i1 [ %.0.i5, %SDL_AudioDevicePaused_REAL.exit ], [ false, %SDL_GetAudioStreamDevice_REAL.exit ], [ false, %SDL_GetAudioStreamDevice_REAL.exit.thread ], [ false, %SDL_GetAudioStreamDevice_REAL.exit.thread8 ]
  ret i1 %.0
}